target datalayout = "e-m:e-p270:32:32-p271:32:32-p272:64:64-i64:64-i128:128-f80:128-n8:16:32:64-S128"
target triple = "x86_64-pc-linux-gnu"

@hf_isis_hello_reverse_metric_flags = internal global i32 0, align 4
@hf_isis_hello_reverse_metric_metric = internal global i32 0, align 4
@hf_isis_hello_reverse_metric_sub_length = internal global i32 0, align 4
@hf_isis_hello_reverse_metric_sub_data = internal global i32 0, align 4
@ett_isis_hello_reverse_metric_flags = internal global i32 0, align 4
@dissect_hello_reverse_metric_clv.flags = internal constant [4 x ptr] [ptr @hf_isis_hello_reverse_metric_flag_reserved, ptr @hf_isis_hello_reverse_metric_flag_u, ptr @hf_isis_hello_reverse_metric_flag_w, ptr null], align 16

; Function Attrs: null_pointer_is_valid sspstrong uwtable
define internal void @dissect_hello_reverse_metric_clv(ptr noundef %0, ptr noundef %1, ptr noundef %2, i32 noundef %3, ptr noundef %4, i32 noundef %5) #0 {
  %7 = alloca ptr, align 8
  %8 = alloca ptr, align 8
  %9 = alloca ptr, align 8
  %10 = alloca i32, align 4
  %11 = alloca ptr, align 8
  %12 = alloca i32, align 4
  %13 = alloca i32, align 4
  store ptr %0, ptr %7, align 8
  store ptr %1, ptr %8, align 8
  store ptr %2, ptr %9, align 8
  store i32 %3, ptr %10, align 4
  store ptr %4, ptr %11, align 8
  store i32 %5, ptr %12, align 4
  call void @llvm.lifetime.start.p0(i64 4, ptr %13) #4
  %14 = load ptr, ptr %9, align 8
  %15 = load ptr, ptr %7, align 8
  %16 = load i32, ptr %10, align 4
  %17 = load i32, ptr @hf_isis_hello_reverse_metric_flags, align 4
  %18 = load i32, ptr @ett_isis_hello_reverse_metric_flags, align 4
  %19 = call ptr @proto_tree_add_bitmask(ptr noundef %14, ptr noundef %15, i32 noundef %16, i32 noundef %17, i32 noundef %18, ptr noundef @dissect_hello_reverse_metric_clv.flags, i32 noundef 0)
  %20 = load i32, ptr %10, align 4
  %21 = add i32 %20, 1
  store i32 %21, ptr %10, align 4
  %22 = load ptr, ptr %9, align 8
  %23 = load i32, ptr @hf_isis_hello_reverse_metric_metric, align 4
  %24 = load ptr, ptr %7, align 8
  %25 = load i32, ptr %10, align 4
  %26 = call ptr @proto_tree_add_item(ptr noundef %22, i32 noundef %23, ptr noundef %24, i32 noundef %25, i32 noundef 3, i32 noundef 0)
  %27 = load i32, ptr %10, align 4
  %28 = add i32 %27, 3
  store i32 %28, ptr %10, align 4
  %29 = load ptr, ptr %9, align 8
  %30 = load i32, ptr @hf_isis_hello_reverse_metric_sub_length, align 4
  %31 = load ptr, ptr %7, align 8
  %32 = load i32, ptr %10, align 4
  %33 = call ptr @proto_tree_add_item_ret_uint(ptr noundef %29, i32 noundef %30, ptr noundef %31, i32 noundef %32, i32 noundef 1, i32 noundef 0, ptr noundef %13)
  %34 = load i32, ptr %10, align 4
  %35 = add i32 %34, 1
  store i32 %35, ptr %10, align 4
  %36 = load i32, ptr %13, align 4
  %37 = icmp ugt i32 %36, 0
  br i1 %37, label %38, label %45

38:                                               ; preds = %6
  %39 = load ptr, ptr %9, align 8
  %40 = load i32, ptr @hf_isis_hello_reverse_metric_sub_data, align 4
  %41 = load ptr, ptr %7, align 8
  %42 = load i32, ptr %10, align 4
  %43 = load i32, ptr %13, align 4
  %44 = call ptr @proto_tree_add_item(ptr noundef %39, i32 noundef %40, ptr noundef %41, i32 noundef %42, i32 noundef %43, i32 noundef 0)
  br label %45

45:                                               ; preds = %38, %6
  call void @llvm.lifetime.end.p0(i64 4, ptr %13) #4
  ret void
}