; Function Attrs: null_pointer_is_valid sspstrong uwtable
define internal void @dissect_hello_reverse_metric_clv(ptr noundef %0, ptr readnone captures(none) %1, ptr noundef %2, i32 noundef %3, ptr readnone captures(none) %4, i32 %5) #0 {
  %7 = alloca i32, align 4
  call void @llvm.lifetime.start.p0(i64 4, ptr nonnull %7) #5
  %8 = load i32, ptr @hf_isis_hello_reverse_metric_flags, align 4
  %9 = load i32, ptr @ett_isis_hello_reverse_metric_flags, align 4
  %10 = tail call ptr @proto_tree_add_bitmask(ptr noundef %2, ptr noundef %0, i32 noundef %3, i32 noundef %8, i32 noundef %9, ptr noundef nonnull @dissect_hello_reverse_metric_clv.flags, i32 noundef 0)
  %11 = add i32 %3, 1
  %12 = load i32, ptr @hf_isis_hello_reverse_metric_metric, align 4
  %13 = tail call ptr @proto_tree_add_item(ptr noundef %2, i32 noundef %12, ptr noundef %0, i32 noundef %11, i32 noundef 3, i32 noundef 0)
  %14 = add i32 %3, 4
  %15 = load i32, ptr @hf_isis_hello_reverse_metric_sub_length, align 4
  %16 = call ptr @proto_tree_add_item_ret_uint(ptr noundef %2, i32 noundef %15, ptr noundef %0, i32 noundef %14, i32 noundef 1, i32 noundef 0, ptr noundef nonnull %7)
  %17 = load i32, ptr %7, align 4
  %.not = icmp eq i32 %17, 0
  br i1 %.not, label %22, label %18

18:                                               ; preds = %6
  %19 = add i32 %3, 5
  %20 = load i32, ptr @hf_isis_hello_reverse_metric_sub_data, align 4
  %21 = call ptr @proto_tree_add_item(ptr noundef %2, i32 noundef %20, ptr noundef %0, i32 noundef %19, i32 noundef %17, i32 noundef 0)
  br label %22

22:                                               ; preds = %18, %6
  call void @llvm.lifetime.end.p0(i64 4, ptr nonnull %7) #5
  ret void
}